; Function Attrs: mustprogress uwtable
define void @_ZN4LIEF5MachO4Hash5visitERKNS0_11UUIDCommandE(ptr noundef nonnull align 8 dereferenceable(64) %0, ptr noundef nonnull align 8 dereferenceable(72) %1) unnamed_addr #3 align 2 {
  %3 = alloca %"struct.std::array", align 8
  %4 = load ptr, ptr %0, align 8
  %5 = getelementptr inbounds i8, ptr %4, i64 872
  %6 = load ptr, ptr %5, align 8
  tail call void %6(ptr noundef nonnull align 8 dereferenceable(64) %0, ptr noundef nonnull align 8 dereferenceable(56) %1)
  %7 = tail call { i64, i64 } @_ZNK4LIEF5MachO11UUIDCommand4uuidEv(ptr noundef nonnull align 8 dereferenceable(72) %1)
  %8 = extractvalue { i64, i64 } %7, 0
  store i64 %8, ptr %3, align 8
  %9 = getelementptr inbounds i8, ptr %3, i64 8
  %10 = extractvalue { i64, i64 } %7, 1
  store i64 %10, ptr %9, align 8
  br label %.lr.ph.i.i

.lr.ph.i.i:                                       ; preds = %.lr.ph.i.i, %2
  %.08.i.idx.i = phi i64 [ %.08.i.add.i, %.lr.ph.i.i ], [ 0, %2 ]
  %.08.i.ptr.i = getelementptr inbounds i8, ptr %3, i64 %.08.i.idx.i
  %11 = load i8, ptr %.08.i.ptr.i, align 1
  %12 = zext i8 %11 to i64
  %13 = load ptr, ptr %0, align 8
  %14 = getelementptr inbounds i8, ptr %13, i64 1328
  %15 = load ptr, ptr %14, align 8
  %16 = tail call noundef nonnull align 8 dereferenceable(64) ptr %15(ptr noundef nonnull align 8 dereferenceable(64) %0, i64 noundef %12)
  %.08.i.add.i = add nuw nsw i64 %.08.i.idx.i, 1
  %.not.i.i = icmp eq i64 %.08.i.add.i, 16
  br i1 %.not.i.i, label %_ZN4LIEF4Hash7processIhLm16EEERS0_RKSt5arrayIT_XT0_EE.exit, label %.lr.ph.i.i, !llvm.loop !27

_ZN4LIEF4Hash7processIhLm16EEERS0_RKSt5arrayIT_XT0_EE.exit: ; preds = %.lr.ph.i.i
  ret void
}